target datalayout = "e-m:e-p270:32:32-p271:32:32-p272:64:64-i64:64-i128:128-f80:128-n8:16:32:64-S128"
target triple = "x86_64-pc-linux-gnu"

%struct.expert_field = type { i32, i32 }
%struct._e_guid_t = type { i32, i16, i16, [8 x i8] }
%struct.nstime_t = type { i64, i32 }
%struct._packet_info = type { ptr, ptr, i32, i32, %struct.nstime_t, %struct.nstime_t, %struct.nstime_t, i8, ptr, ptr, ptr, ptr, %struct._address, %struct._address, %struct._address, %struct._address, %struct._address, %struct._address, i32, ptr, i8, [3 x i8], %struct.anon, i32, i32, i32, i32, ptr, i8, ptr, ptr, i16, i16, i32, i32, i16, i32, i32, ptr, ptr, ptr, i8, i8, i16, i16, i16, i32, i16, i16, ptr, ptr, ptr, ptr, ptr, i32, i32 }
%struct._address = type { i32, i32, ptr, ptr }
%struct.anon = type { i8, [3 x i8] }
%struct._smb2_info_t = type { i16, i32, i32, i32, i64, i64, i32, ptr, ptr, ptr, ptr, ptr, ptr, ptr }
%struct._smb2_saved_info_t = type { i8, i8, i64, i32, i32, %struct.nstime_t, ptr, ptr, ptr, %struct._e_ctx_hnd, ptr, i64, i32, ptr, i32, i32, i16, ptr, %struct._e_guid_t, i32, i32, ptr }
%struct._e_ctx_hnd = type { i32, %struct._e_guid_t }

@hf_smb2_filename = internal global i32 0, align 4
@hf_smb2_filename_len = internal global i32 0, align 4
@hf_smb2_next_offset = internal global i32 0, align 4
@hf_smb2_file_index = internal global i32 0, align 4
@hf_smb2_both_directory_info = internal global i32 0, align 4
@ett_smb2_both_directory_info = internal global i32 0, align 4
@ei_smb2_invalid_length = internal global %struct.expert_field zeroinitializer, align 4
@.str.1550 = private unnamed_addr constant [40 x i8] c"Invalid offset/length. Malformed packet\00", align 1
@.str.2273 = private unnamed_addr constant [5 x i8] c": %s\00", align 1

; Function Attrs: null_pointer_is_valid sspstrong uwtable
define internal void @dissect_smb2_file_name_info(ptr noundef %0, ptr noundef %1, ptr noundef %2, ptr noundef %3) #0 {
  %5 = alloca ptr, align 8
  %6 = alloca ptr, align 8
  %7 = alloca ptr, align 8
  %8 = alloca ptr, align 8
  %9 = alloca i32, align 4
  %10 = alloca ptr, align 8
  %11 = alloca ptr, align 8
  %12 = alloca i32, align 4
  %13 = alloca i32, align 4
  %14 = alloca i32, align 4
  %15 = alloca ptr, align 8
  %16 = alloca i32, align 4
  store ptr %0, ptr %5, align 8
  store ptr %1, ptr %6, align 8
  store ptr %2, ptr %7, align 8
  store ptr %3, ptr %8, align 8
  call void @llvm.lifetime.start.p0(i64 4, ptr %9) #13
  store i32 0, ptr %9, align 4
  call void @llvm.lifetime.start.p0(i64 8, ptr %10) #13
  store ptr null, ptr %10, align 8
  call void @llvm.lifetime.start.p0(i64 8, ptr %11) #13
  store ptr null, ptr %11, align 8
  br label %17

17:                                               ; preds = %116, %4
  %18 = load ptr, ptr %5, align 8
  %19 = load i32, ptr %9, align 4
  %20 = call i32 @tvb_reported_length_remaining(ptr noundef %18, i32 noundef %19)
  %21 = icmp sgt i32 %20, 4
  br i1 %21, label %22, label %117

22:                                               ; preds = %17
  call void @llvm.lifetime.start.p0(i64 4, ptr %12) #13
  %23 = load i32, ptr %9, align 4
  store i32 %23, ptr %12, align 4
  call void @llvm.lifetime.start.p0(i64 4, ptr %13) #13
  call void @llvm.lifetime.start.p0(i64 4, ptr %14) #13
  %24 = load ptr, ptr %7, align 8
  %25 = icmp ne ptr %24, null
  br i1 %25, label %26, label %35

26:                                               ; preds = %22
  %27 = load ptr, ptr %7, align 8
  %28 = load i32, ptr @hf_smb2_both_directory_info, align 4
  %29 = load ptr, ptr %5, align 8
  %30 = load i32, ptr %9, align 4
  %31 = call ptr @proto_tree_add_item(ptr noundef %27, i32 noundef %28, ptr noundef %29, i32 noundef %30, i32 noundef -1, i32 noundef 0)
  store ptr %31, ptr %10, align 8
  %32 = load ptr, ptr %10, align 8
  %33 = load i32, ptr @ett_smb2_both_directory_info, align 4
  %34 = call ptr @proto_item_add_subtree(ptr noundef %32, i32 noundef %33)
  store ptr %34, ptr %11, align 8
  br label %35

35:                                               ; preds = %26, %22
  %36 = load ptr, ptr %5, align 8
  %37 = load i32, ptr %9, align 4
  %38 = call i32 @tvb_get_letohl(ptr noundef %36, i32 noundef %37)
  store i32 %38, ptr %13, align 4
  %39 = load ptr, ptr %11, align 8
  %40 = load i32, ptr @hf_smb2_next_offset, align 4
  %41 = load ptr, ptr %5, align 8
  %42 = load i32, ptr %9, align 4
  %43 = call ptr @proto_tree_add_item(ptr noundef %39, i32 noundef %40, ptr noundef %41, i32 noundef %42, i32 noundef 4, i32 noundef -2147483648)
  %44 = load i32, ptr %9, align 4
  %45 = add i32 %44, 4
  store i32 %45, ptr %9, align 4
  %46 = load ptr, ptr %11, align 8
  %47 = load i32, ptr @hf_smb2_file_index, align 4
  %48 = load ptr, ptr %5, align 8
  %49 = load i32, ptr %9, align 4
  %50 = call ptr @proto_tree_add_item(ptr noundef %46, i32 noundef %47, ptr noundef %48, i32 noundef %49, i32 noundef 4, i32 noundef -2147483648)
  %51 = load i32, ptr %9, align 4
  %52 = add i32 %51, 4
  store i32 %52, ptr %9, align 4
  %53 = load ptr, ptr %5, align 8
  %54 = load i32, ptr %9, align 4
  %55 = call i32 @tvb_get_letohl(ptr noundef %53, i32 noundef %54)
  store i32 %55, ptr %14, align 4
  %56 = load ptr, ptr %11, align 8
  %57 = load i32, ptr @hf_smb2_filename_len, align 4
  %58 = load ptr, ptr %5, align 8
  %59 = load i32, ptr %9, align 4
  %60 = call ptr @proto_tree_add_item(ptr noundef %56, i32 noundef %57, ptr noundef %58, i32 noundef %59, i32 noundef 4, i32 noundef -2147483648)
  %61 = load i32, ptr %9, align 4
  %62 = add i32 %61, 4
  store i32 %62, ptr %9, align 4
  %63 = load i32, ptr %14, align 4
  %64 = icmp ne i32 %63, 0
  br i1 %64, label %65, label %80

65:                                               ; preds = %35
  call void @llvm.lifetime.start.p0(i64 8, ptr %15) #13
  %66 = load ptr, ptr %11, align 8
  %67 = load i32, ptr @hf_smb2_filename, align 4
  %68 = load ptr, ptr %5, align 8
  %69 = load i32, ptr %9, align 4
  %70 = load i32, ptr %14, align 4
  %71 = load ptr, ptr %6, align 8
  %72 = getelementptr inbounds nuw %struct._packet_info, ptr %71, i32 0, i32 51
  %73 = load ptr, ptr %72, align 8
  %74 = call ptr @proto_tree_add_item_ret_display_string(ptr noundef %66, i32 noundef %67, ptr noundef %68, i32 noundef %69, i32 noundef %70, i32 noundef -2147483644, ptr noundef %73, ptr noundef %15)
  %75 = load ptr, ptr %10, align 8
  %76 = load ptr, ptr %15, align 8
  call void (ptr, ptr, ...) @proto_item_append_text(ptr noundef %75, ptr noundef @.str.2273, ptr noundef %76)
  %77 = load i32, ptr %14, align 4
  %78 = load i32, ptr %9, align 4
  %79 = add i32 %78, %77
  store i32 %79, ptr %9, align 4
  call void @llvm.lifetime.end.p0(i64 8, ptr %15) #13
  br label %80

80:                                               ; preds = %65, %35
  %81 = load ptr, ptr %8, align 8
  %82 = getelementptr inbounds nuw %struct._smb2_info_t, ptr %81, i32 0, i32 9
  %83 = load ptr, ptr %82, align 8
  %84 = icmp ne ptr %83, null
  br i1 %84, label %85, label %92

85:                                               ; preds = %80
  %86 = load ptr, ptr %8, align 8
  %87 = getelementptr inbounds nuw %struct._smb2_info_t, ptr %86, i32 0, i32 9
  %88 = load ptr, ptr %87, align 8
  %89 = getelementptr inbounds nuw %struct._smb2_saved_info_t, ptr %88, i32 0, i32 16
  %90 = load i16, ptr %89, align 8
  %91 = add i16 %90, 1
  store i16 %91, ptr %89, align 8
  br label %92

92:                                               ; preds = %85, %80
  %93 = load ptr, ptr %10, align 8
  %94 = load i32, ptr %9, align 4
  %95 = load i32, ptr %12, align 4
  %96 = sub i32 %94, %95
  call void @proto_item_set_len(ptr noundef %93, i32 noundef %96)
  %97 = load i32, ptr %13, align 4
  %98 = icmp eq i32 %97, 0
  br i1 %98, label %99, label %100

99:                                               ; preds = %92
  store i32 1, ptr %16, align 4
  br label %114

100:                                              ; preds = %92
  %101 = load i32, ptr %12, align 4
  %102 = load i32, ptr %13, align 4
  %103 = add i32 %101, %102
  store i32 %103, ptr %9, align 4
  %104 = load i32, ptr %9, align 4
  %105 = load i32, ptr %12, align 4
  %106 = icmp slt i32 %104, %105
  br i1 %106, label %107, label %113

107:                                              ; preds = %100
  %108 = load ptr, ptr %11, align 8
  %109 = load ptr, ptr %6, align 8
  %110 = load ptr, ptr %5, align 8
  %111 = load i32, ptr %9, align 4
  %112 = call ptr (ptr, ptr, ptr, ptr, i32, i32, ptr, ...) @proto_tree_add_expert_format(ptr noundef %108, ptr noundef %109, ptr noundef @ei_smb2_invalid_length, ptr noundef %110, i32 noundef %111, i32 noundef -1, ptr noundef @.str.1550)
  store i32 1, ptr %16, align 4
  br label %114

113:                                              ; preds = %100
  store i32 0, ptr %16, align 4
  br label %114

114:                                              ; preds = %113, %107, %99
  call void @llvm.lifetime.end.p0(i64 4, ptr %14) #13
  call void @llvm.lifetime.end.p0(i64 4, ptr %13) #13
  call void @llvm.lifetime.end.p0(i64 4, ptr %12) #13
  %115 = load i32, ptr %16, align 4
  switch i32 %115, label %118 [
    i32 0, label %116
  ]

116:                                              ; preds = %114
  br label %17, !llvm.loop !39

117:                                              ; preds = %17
  store i32 0, ptr %16, align 4
  br label %118

118:                                              ; preds = %117, %114
  call void @llvm.lifetime.end.p0(i64 8, ptr %11) #13
  call void @llvm.lifetime.end.p0(i64 8, ptr %10) #13
  call void @llvm.lifetime.end.p0(i64 4, ptr %9) #13
  %119 = load i32, ptr %16, align 4
  switch i32 %119, label %121 [
    i32 0, label %120
    i32 1, label %120
  ]

120:                                              ; preds = %118, %118
  ret void

121:                                              ; preds = %118
  unreachable
}