; Function Attrs: null_pointer_is_valid sspstrong uwtable
define internal void @dissect_smb2_file_name_info(ptr noundef %0, ptr noundef %1, ptr noundef %2, ptr noundef readonly captures(none) %3) #0 {
  %5 = alloca ptr, align 8
  %.not = icmp eq ptr %2, null
  %6 = getelementptr inbounds nuw i8, ptr %1, i64 408
  %7 = getelementptr inbounds nuw i8, ptr %3, i64 56
  br label %8

8:                                                ; preds = %44, %4
  %.050 = phi ptr [ null, %4 ], [ %.151, %44 ]
  %.048 = phi ptr [ null, %4 ], [ %.149, %44 ]
  %.047 = phi i32 [ 0, %4 ], [ %45, %44 ]
  %9 = call i32 @tvb_reported_length_remaining(ptr noundef %0, i32 noundef %.047)
  %10 = icmp sgt i32 %9, 4
  br i1 %10, label %11, label %.thread

11:                                               ; preds = %8
  br i1 %.not, label %17, label %12

12:                                               ; preds = %11
  %13 = load i32, ptr @hf_smb2_both_directory_info, align 4
  %14 = call ptr @proto_tree_add_item(ptr noundef nonnull %2, i32 noundef %13, ptr noundef %0, i32 noundef %.047, i32 noundef -1, i32 noundef 0)
  %15 = load i32, ptr @ett_smb2_both_directory_info, align 4
  %16 = call ptr @proto_item_add_subtree(ptr noundef %14, i32 noundef %15)
  br label %17

17:                                               ; preds = %12, %11
  %.151 = phi ptr [ %16, %12 ], [ %.050, %11 ]
  %.149 = phi ptr [ %14, %12 ], [ %.048, %11 ]
  %18 = call i32 @tvb_get_letohl(ptr noundef %0, i32 noundef %.047)
  %19 = load i32, ptr @hf_smb2_next_offset, align 4
  %20 = call ptr @proto_tree_add_item(ptr noundef %.151, i32 noundef %19, ptr noundef %0, i32 noundef %.047, i32 noundef 4, i32 noundef -2147483648)
  %21 = add i32 %.047, 4
  %22 = load i32, ptr @hf_smb2_file_index, align 4
  %23 = call ptr @proto_tree_add_item(ptr noundef %.151, i32 noundef %22, ptr noundef %0, i32 noundef %21, i32 noundef 4, i32 noundef -2147483648)
  %24 = add i32 %.047, 8
  %25 = call i32 @tvb_get_letohl(ptr noundef %0, i32 noundef %24)
  %26 = load i32, ptr @hf_smb2_filename_len, align 4
  %27 = call ptr @proto_tree_add_item(ptr noundef %.151, i32 noundef %26, ptr noundef %0, i32 noundef %24, i32 noundef 4, i32 noundef -2147483648)
  %28 = add i32 %.047, 12
  %.not58 = icmp eq i32 %25, 0
  br i1 %.not58, label %35, label %29

29:                                               ; preds = %17
  call void @llvm.lifetime.start.p0(i64 8, ptr nonnull %5) #13
  %30 = load i32, ptr @hf_smb2_filename, align 4
  %31 = load ptr, ptr %6, align 8
  %32 = call ptr @proto_tree_add_item_ret_display_string(ptr noundef %.151, i32 noundef %30, ptr noundef %0, i32 noundef %28, i32 noundef %25, i32 noundef -2147483644, ptr noundef %31, ptr noundef nonnull %5)
  %33 = load ptr, ptr %5, align 8
  call void (ptr, ptr, ...) @proto_item_append_text(ptr noundef %.149, ptr noundef nonnull @.str.2273, ptr noundef %33)
  %34 = add i32 %25, %28
  call void @llvm.lifetime.end.p0(i64 8, ptr nonnull %5) #13
  br label %35

35:                                               ; preds = %29, %17
  %.1 = phi i32 [ %34, %29 ], [ %28, %17 ]
  %36 = load ptr, ptr %7, align 8
  %.not59 = icmp eq ptr %36, null
  br i1 %.not59, label %41, label %37

37:                                               ; preds = %35
  %38 = getelementptr inbounds nuw i8, ptr %36, i64 128
  %39 = load i16, ptr %38, align 8
  %40 = add i16 %39, 1
  store i16 %40, ptr %38, align 8
  br label %41

41:                                               ; preds = %37, %35
  %42 = sub i32 %.1, %.047
  call void @proto_item_set_len(ptr noundef %.149, i32 noundef %42)
  %43 = icmp eq i32 %18, 0
  br i1 %43, label %.thread, label %44

44:                                               ; preds = %41
  %45 = add i32 %18, %.047
  %46 = icmp slt i32 %45, %.047
  br i1 %46, label %47, label %8, !llvm.loop !45

47:                                               ; preds = %44
  %48 = call ptr (ptr, ptr, ptr, ptr, i32, i32, ptr, ...) @proto_tree_add_expert_format(ptr noundef %.151, ptr noundef %1, ptr noundef nonnull @ei_smb2_invalid_length, ptr noundef %0, i32 noundef %45, i32 noundef -1, ptr noundef nonnull @.str.1550)
  br label %.thread

.thread:                                          ; preds = %41, %8, %47
  ret void
}